target datalayout = "e-m:e-p270:32:32-p271:32:32-p272:64:64-i64:64-i128:128-f80:128-n8:16:32:64-S128"
target triple = "x86_64-pc-linux-gnu"

%"class.std::__1::unique_ptr" = type { ptr }
%"class.std::__1::__barrier_algorithm_base" = type { ptr, %"class.std::__1::unique_ptr" }

; Function Attrs: mustprogress nounwind uwtable
define linkonce_odr hidden void @_ZNKSt3__114default_deleteIA_NS_24__barrier_algorithm_base9__state_tEEclB8ne210000IS2_TnNS_9enable_ifIXsr14is_convertibleIPA_T_PS3_EE5valueEiE4typeELi0EEEvPS7_(ptr noundef nonnull align 1 dereferenceable(1) %0, ptr noundef %1) #3 comdat align 2 {
  %3 = alloca ptr, align 8
  %4 = alloca ptr, align 8
  store ptr %0, ptr %3, align 8, !tbaa !40
  store ptr %1, ptr %4, align 8, !tbaa !26
  %5 = load ptr, ptr %4, align 8, !tbaa !26
  %6 = icmp eq ptr %5, null
  br i1 %6, label %8, label %7

7:                                                ; preds = %2
  call void @_ZdaPvSt11align_val_t(ptr noundef %5, i64 noundef 64) #11
  br label %8

8:                                                ; preds = %7, %2
  ret void
}

; Function Attrs: mustprogress nounwind uwtable
define linkonce_odr hidden void @_ZNSt3__110unique_ptrIA_NS_24__barrier_algorithm_base9__state_tENS_14default_deleteIS3_EEE5resetB8ne210000EDn(ptr noundef nonnull align 8 dereferenceable(8) %0, ptr %1) #3 comdat align 2 {
  %3 = alloca ptr, align 8
  %4 = alloca ptr, align 8
  %5 = alloca ptr, align 8
  store ptr %0, ptr %3, align 8, !tbaa !23
  store ptr %1, ptr %4, align 8, !tbaa !42
  %6 = load ptr, ptr %3, align 8
  call void @llvm.lifetime.start.p0(i64 8, ptr %5) #12
  %7 = getelementptr inbounds nuw %"class.std::__1::unique_ptr", ptr %6, i32 0, i32 0
  %8 = load ptr, ptr %7, align 8, !tbaa !25
  store ptr %8, ptr %5, align 8, !tbaa !26
  %9 = getelementptr inbounds nuw %"class.std::__1::unique_ptr", ptr %6, i32 0, i32 0
  store ptr null, ptr %9, align 8, !tbaa !25
  %10 = load ptr, ptr %5, align 8, !tbaa !26
  %11 = icmp ne ptr %10, null
  br i1 %11, label %12, label %14

12:                                               ; preds = %2
  %13 = load ptr, ptr %5, align 8, !tbaa !26
  call void @_ZNKSt3__114default_deleteIA_NS_24__barrier_algorithm_base9__state_tEEclB8ne210000IS2_TnNS_9enable_ifIXsr14is_convertibleIPA_T_PS3_EE5valueEiE4typeELi0EEEvPS7_(ptr noundef nonnull align 1 dereferenceable(1) %6, ptr noundef %13) #12
  br label %14

14:                                               ; preds = %12, %2
  call void @llvm.lifetime.end.p0(i64 8, ptr %5) #12
  ret void
}

; Function Attrs: mustprogress nounwind uwtable
define linkonce_odr hidden void @_ZNSt3__110unique_ptrIA_NS_24__barrier_algorithm_base9__state_tENS_14default_deleteIS3_EEED2B8ne210000Ev(ptr noundef nonnull align 8 dereferenceable(8) %0) unnamed_addr #3 comdat align 2 {
  %2 = alloca ptr, align 8
  store ptr %0, ptr %2, align 8, !tbaa !23
  %3 = load ptr, ptr %2, align 8
  call void @_ZNSt3__110unique_ptrIA_NS_24__barrier_algorithm_base9__state_tENS_14default_deleteIS3_EEE5resetB8ne210000EDn(ptr noundef nonnull align 8 dereferenceable(8) %3, ptr null) #12
  ret void
}

; Function Attrs: inlinehint mustprogress nounwind uwtable
define linkonce_odr hidden void @_ZNSt3__124__barrier_algorithm_baseD2Ev(ptr noundef nonnull align 8 dereferenceable(16) %0) unnamed_addr #5 comdat align 2 {
  %2 = alloca ptr, align 8
  store ptr %0, ptr %2, align 8, !tbaa !9
  %3 = load ptr, ptr %2, align 8
  %4 = getelementptr inbounds nuw %"class.std::__1::__barrier_algorithm_base", ptr %3, i32 0, i32 1
  call void @_ZNSt3__110unique_ptrIA_NS_24__barrier_algorithm_base9__state_tENS_14default_deleteIS3_EEED2B8ne210000Ev(ptr noundef nonnull align 8 dereferenceable(8) %4) #12
  ret void
}

; Function Attrs: mustprogress nounwind uwtable
define dso_local void @_ZNSt3__132__destroy_barrier_algorithm_baseEPNS_24__barrier_algorithm_baseE(ptr noundef %0) #3 {
  %2 = alloca ptr, align 8
  store ptr %0, ptr %2, align 8, !tbaa !9
  %3 = load ptr, ptr %2, align 8, !tbaa !9
  %4 = icmp eq ptr %3, null
  br i1 %4, label %6, label %5

5:                                                ; preds = %1
  call void @_ZNSt3__124__barrier_algorithm_baseD2Ev(ptr noundef nonnull align 8 dereferenceable(16) %3) #12
  call void @_ZdlPvm(ptr noundef %3, i64 noundef 16) #11
  br label %6

6:                                                ; preds = %5, %1
  ret void
}