; Function Attrs: mustprogress nounwind uwtable
define dso_local void @_ZNSt3__132__destroy_barrier_algorithm_baseEPNS_24__barrier_algorithm_baseE(ptr noundef %0) local_unnamed_addr #3 {
  %2 = icmp eq ptr %0, null
  br i1 %2, label %6, label %3

3:                                                ; preds = %1
  %4 = getelementptr inbounds nuw i8, ptr %0, i64 8
  %5 = load ptr, ptr %4, align 8, !tbaa !9
  store ptr null, ptr %4, align 8, !tbaa !9
  %.not.i.i.i = icmp eq ptr %5, null
  br i1 %.not.i.i.i, label %_ZNSt3__124__barrier_algorithm_baseD2Ev.exit, label %_ZNKSt3__114default_deleteIA_NS_24__barrier_algorithm_base9__state_tEEclB8ne210000IS2_TnNS_9enable_ifIXsr14is_convertibleIPA_T_PS3_EE5valueEiE4typeELi0EEEvPS7_.exit.i.i.i

_ZNKSt3__114default_deleteIA_NS_24__barrier_algorithm_base9__state_tEEclB8ne210000IS2_TnNS_9enable_ifIXsr14is_convertibleIPA_T_PS3_EE5valueEiE4typeELi0EEEvPS7_.exit.i.i.i: ; preds = %3
  tail call void @_ZdaPvSt11align_val_t(ptr noundef nonnull %5, i64 noundef 64) #9
  br label %_ZNSt3__124__barrier_algorithm_baseD2Ev.exit

_ZNSt3__124__barrier_algorithm_baseD2Ev.exit:     ; preds = %3, %_ZNKSt3__114default_deleteIA_NS_24__barrier_algorithm_base9__state_tEEclB8ne210000IS2_TnNS_9enable_ifIXsr14is_convertibleIPA_T_PS3_EE5valueEiE4typeELi0EEEvPS7_.exit.i.i.i
  tail call void @_ZdlPvm(ptr noundef nonnull %0, i64 noundef 16) #9
  br label %6

6:                                                ; preds = %_ZNSt3__124__barrier_algorithm_baseD2Ev.exit, %1
  ret void
}